target datalayout = "e-m:e-p270:32:32-p271:32:32-p272:64:64-i64:64-i128:128-f80:128-n8:16:32:64-S128"
target triple = "x86_64-pc-linux-gnu"

%struct.AVFilterContext = type { ptr, ptr, ptr, ptr, ptr, i32, ptr, ptr, i32, ptr, ptr, i32, i32, ptr, ptr, ptr, ptr, i32, ptr, i32, i32 }
%struct.CorrContext = type { ptr, %struct.FFFrameSync, double, double, double, [4 x double], i64, i32, i32, [4 x i8], [4 x i32], [4 x i8], [4 x [2 x float]], ptr, ptr, i32, [4 x i32], [4 x i32], ptr, ptr }
%struct.FFFrameSync = type { ptr, ptr, i32, %struct.AVRational, i64, ptr, ptr, i32, i32, i8, i8, ptr, i32, i32, i32, i32 }
%struct.AVRational = type { i32, i32 }
%struct.AVFilterLink = type { ptr, ptr, ptr, ptr, i32, i32, i32, i32, %struct.AVRational, i32, i32, i32, %struct.AVChannelLayout, %struct.AVRational, ptr, i32, %struct.AVFilterFormatsConfig, %struct.AVFilterFormatsConfig }
%struct.AVChannelLayout = type { i32, i32, %union.anon.1, ptr }
%union.anon.1 = type { i64 }
%struct.AVFilterFormatsConfig = type { ptr, ptr, ptr, ptr, ptr }
%struct.AVPixFmtDescriptor = type { ptr, i8, i8, i8, i64, [4 x %struct.AVComponentDescriptor], ptr }
%struct.AVComponentDescriptor = type { i32, i32, i32, i32, i32 }

@.str.4 = private unnamed_addr constant [48 x i8] c"Width and height of input videos must be same.\0A\00", align 1

; Function Attrs: nounwind uwtable
define internal i32 @config_input_ref(ptr noundef %0) #0 {
  %2 = alloca i32, align 4
  %3 = alloca ptr, align 8
  %4 = alloca ptr, align 8
  %5 = alloca ptr, align 8
  %6 = alloca ptr, align 8
  %7 = alloca i32, align 4
  store ptr %0, ptr %3, align 8, !tbaa !47
  call void @llvm.lifetime.start.p0(i64 8, ptr %4) #11
  %8 = load ptr, ptr %3, align 8, !tbaa !47
  %9 = getelementptr inbounds nuw %struct.AVFilterLink, ptr %8, i32 0, i32 5
  %10 = load i32, ptr %9, align 4, !tbaa !49
  %11 = call ptr @av_pix_fmt_desc_get(i32 noundef %10)
  store ptr %11, ptr %4, align 8, !tbaa !56
  call void @llvm.lifetime.start.p0(i64 8, ptr %5) #11
  %12 = load ptr, ptr %3, align 8, !tbaa !47
  %13 = getelementptr inbounds nuw %struct.AVFilterLink, ptr %12, i32 0, i32 2
  %14 = load ptr, ptr %13, align 8, !tbaa !58
  store ptr %14, ptr %5, align 8, !tbaa !4
  call void @llvm.lifetime.start.p0(i64 8, ptr %6) #11
  %15 = load ptr, ptr %5, align 8, !tbaa !4
  %16 = getelementptr inbounds nuw %struct.AVFilterContext, ptr %15, i32 0, i32 9
  %17 = load ptr, ptr %16, align 8, !tbaa !9
  store ptr %17, ptr %6, align 8, !tbaa !22
  %18 = load ptr, ptr %5, align 8, !tbaa !4
  %19 = call i32 @ff_filter_get_nb_threads(ptr noundef %18) #12
  %20 = load ptr, ptr %6, align 8, !tbaa !22
  %21 = getelementptr inbounds nuw %struct.CorrContext, ptr %20, i32 0, i32 7
  store i32 %19, ptr %21, align 8, !tbaa !59
  %22 = load ptr, ptr %4, align 8, !tbaa !56
  %23 = getelementptr inbounds nuw %struct.AVPixFmtDescriptor, ptr %22, i32 0, i32 1
  %24 = load i8, ptr %23, align 8, !tbaa !60
  %25 = zext i8 %24 to i32
  %26 = load ptr, ptr %6, align 8, !tbaa !22
  %27 = getelementptr inbounds nuw %struct.CorrContext, ptr %26, i32 0, i32 15
  store i32 %25, ptr %27, align 8, !tbaa !36
  %28 = load ptr, ptr %5, align 8, !tbaa !4
  %29 = getelementptr inbounds nuw %struct.AVFilterContext, ptr %28, i32 0, i32 4
  %30 = load ptr, ptr %29, align 8, !tbaa !62
  %31 = getelementptr inbounds ptr, ptr %30, i64 0
  %32 = load ptr, ptr %31, align 8, !tbaa !47
  %33 = getelementptr inbounds nuw %struct.AVFilterLink, ptr %32, i32 0, i32 6
  %34 = load i32, ptr %33, align 8, !tbaa !63
  %35 = load ptr, ptr %5, align 8, !tbaa !4
  %36 = getelementptr inbounds nuw %struct.AVFilterContext, ptr %35, i32 0, i32 4
  %37 = load ptr, ptr %36, align 8, !tbaa !62
  %38 = getelementptr inbounds ptr, ptr %37, i64 1
  %39 = load ptr, ptr %38, align 8, !tbaa !47
  %40 = getelementptr inbounds nuw %struct.AVFilterLink, ptr %39, i32 0, i32 6
  %41 = load i32, ptr %40, align 8, !tbaa !63
  %42 = icmp ne i32 %34, %41
  br i1 %42, label %59, label %43

43:                                               ; preds = %1
  %44 = load ptr, ptr %5, align 8, !tbaa !4
  %45 = getelementptr inbounds nuw %struct.AVFilterContext, ptr %44, i32 0, i32 4
  %46 = load ptr, ptr %45, align 8, !tbaa !62
  %47 = getelementptr inbounds ptr, ptr %46, i64 0
  %48 = load ptr, ptr %47, align 8, !tbaa !47
  %49 = getelementptr inbounds nuw %struct.AVFilterLink, ptr %48, i32 0, i32 7
  %50 = load i32, ptr %49, align 4, !tbaa !64
  %51 = load ptr, ptr %5, align 8, !tbaa !4
  %52 = getelementptr inbounds nuw %struct.AVFilterContext, ptr %51, i32 0, i32 4
  %53 = load ptr, ptr %52, align 8, !tbaa !62
  %54 = getelementptr inbounds ptr, ptr %53, i64 1
  %55 = load ptr, ptr %54, align 8, !tbaa !47
  %56 = getelementptr inbounds nuw %struct.AVFilterLink, ptr %55, i32 0, i32 7
  %57 = load i32, ptr %56, align 4, !tbaa !64
  %58 = icmp ne i32 %50, %57
  br i1 %58, label %59, label %61

59:                                               ; preds = %43, %1
  %60 = load ptr, ptr %5, align 8, !tbaa !4
  call void (ptr, i32, ptr, ...) @av_log(ptr noundef %60, i32 noundef 16, ptr noundef @.str.4)
  store i32 -22, ptr %2, align 4
  store i32 1, ptr %7, align 4
  br label %294

61:                                               ; preds = %43
  %62 = load ptr, ptr %6, align 8, !tbaa !22
  %63 = getelementptr inbounds nuw %struct.CorrContext, ptr %62, i32 0, i32 9
  %64 = getelementptr inbounds [4 x i8], ptr %63, i64 0, i64 0
  %65 = load ptr, ptr %3, align 8, !tbaa !47
  %66 = getelementptr inbounds nuw %struct.AVFilterLink, ptr %65, i32 0, i32 5
  %67 = load i32, ptr %66, align 4, !tbaa !49
  %68 = call i32 @ff_fill_rgba_map(ptr noundef %64, i32 noundef %67)
  %69 = icmp sge i32 %68, 0
  %70 = zext i1 %69 to i32
  %71 = load ptr, ptr %6, align 8, !tbaa !22
  %72 = getelementptr inbounds nuw %struct.CorrContext, ptr %71, i32 0, i32 8
  store i32 %70, ptr %72, align 4, !tbaa !37
  %73 = load ptr, ptr %6, align 8, !tbaa !22
  %74 = getelementptr inbounds nuw %struct.CorrContext, ptr %73, i32 0, i32 8
  %75 = load i32, ptr %74, align 4, !tbaa !37
  %76 = icmp ne i32 %75, 0
  %77 = select i1 %76, i32 82, i32 89
  %78 = trunc i32 %77 to i8
  %79 = load ptr, ptr %6, align 8, !tbaa !22
  %80 = getelementptr inbounds nuw %struct.CorrContext, ptr %79, i32 0, i32 11
  %81 = getelementptr inbounds [4 x i8], ptr %80, i64 0, i64 0
  store i8 %78, ptr %81, align 4, !tbaa !34
  %82 = load ptr, ptr %6, align 8, !tbaa !22
  %83 = getelementptr inbounds nuw %struct.CorrContext, ptr %82, i32 0, i32 8
  %84 = load i32, ptr %83, align 4, !tbaa !37
  %85 = icmp ne i32 %84, 0
  %86 = select i1 %85, i32 71, i32 85
  %87 = trunc i32 %86 to i8
  %88 = load ptr, ptr %6, align 8, !tbaa !22
  %89 = getelementptr inbounds nuw %struct.CorrContext, ptr %88, i32 0, i32 11
  %90 = getelementptr inbounds [4 x i8], ptr %89, i64 0, i64 1
  store i8 %87, ptr %90, align 1, !tbaa !34
  %91 = load ptr, ptr %6, align 8, !tbaa !22
  %92 = getelementptr inbounds nuw %struct.CorrContext, ptr %91, i32 0, i32 8
  %93 = load i32, ptr %92, align 4, !tbaa !37
  %94 = icmp ne i32 %93, 0
  %95 = select i1 %94, i32 66, i32 86
  %96 = trunc i32 %95 to i8
  %97 = load ptr, ptr %6, align 8, !tbaa !22
  %98 = getelementptr inbounds nuw %struct.CorrContext, ptr %97, i32 0, i32 11
  %99 = getelementptr inbounds [4 x i8], ptr %98, i64 0, i64 2
  store i8 %96, ptr %99, align 2, !tbaa !34
  %100 = load ptr, ptr %6, align 8, !tbaa !22
  %101 = getelementptr inbounds nuw %struct.CorrContext, ptr %100, i32 0, i32 11
  %102 = getelementptr inbounds [4 x i8], ptr %101, i64 0, i64 3
  store i8 65, ptr %102, align 1, !tbaa !34
  %103 = load ptr, ptr %4, align 8, !tbaa !56
  %104 = getelementptr inbounds nuw %struct.AVPixFmtDescriptor, ptr %103, i32 0, i32 3
  %105 = load i8, ptr %104, align 2, !tbaa !65
  %106 = call i1 @llvm.is.constant.i8(i8 %105)
  br i1 %106, label %118, label %107

107:                                              ; preds = %61
  %108 = load ptr, ptr %3, align 8, !tbaa !47
  %109 = getelementptr inbounds nuw %struct.AVFilterLink, ptr %108, i32 0, i32 7
  %110 = load i32, ptr %109, align 4, !tbaa !64
  %111 = sub nsw i32 0, %110
  %112 = load ptr, ptr %4, align 8, !tbaa !56
  %113 = getelementptr inbounds nuw %struct.AVPixFmtDescriptor, ptr %112, i32 0, i32 3
  %114 = load i8, ptr %113, align 2, !tbaa !65
  %115 = zext i8 %114 to i32
  %116 = ashr i32 %111, %115
  %117 = sub nsw i32 0, %116
  br label %134

118:                                              ; preds = %61
  %119 = load ptr, ptr %3, align 8, !tbaa !47
  %120 = getelementptr inbounds nuw %struct.AVFilterLink, ptr %119, i32 0, i32 7
  %121 = load i32, ptr %120, align 4, !tbaa !64
  %122 = load ptr, ptr %4, align 8, !tbaa !56
  %123 = getelementptr inbounds nuw %struct.AVPixFmtDescriptor, ptr %122, i32 0, i32 3
  %124 = load i8, ptr %123, align 2, !tbaa !65
  %125 = zext i8 %124 to i32
  %126 = shl i32 1, %125
  %127 = add nsw i32 %121, %126
  %128 = sub nsw i32 %127, 1
  %129 = load ptr, ptr %4, align 8, !tbaa !56
  %130 = getelementptr inbounds nuw %struct.AVPixFmtDescriptor, ptr %129, i32 0, i32 3
  %131 = load i8, ptr %130, align 2, !tbaa !65
  %132 = zext i8 %131 to i32
  %133 = ashr i32 %128, %132
  br label %134

134:                                              ; preds = %118, %107
  %135 = phi i32 [ %117, %107 ], [ %133, %118 ]
  %136 = load ptr, ptr %6, align 8, !tbaa !22
  %137 = getelementptr inbounds nuw %struct.CorrContext, ptr %136, i32 0, i32 17
  %138 = getelementptr inbounds [4 x i32], ptr %137, i64 0, i64 2
  store i32 %135, ptr %138, align 4, !tbaa !35
  %139 = load ptr, ptr %6, align 8, !tbaa !22
  %140 = getelementptr inbounds nuw %struct.CorrContext, ptr %139, i32 0, i32 17
  %141 = getelementptr inbounds [4 x i32], ptr %140, i64 0, i64 1
  store i32 %135, ptr %141, align 4, !tbaa !35
  %142 = load ptr, ptr %3, align 8, !tbaa !47
  %143 = getelementptr inbounds nuw %struct.AVFilterLink, ptr %142, i32 0, i32 7
  %144 = load i32, ptr %143, align 4, !tbaa !64
  %145 = load ptr, ptr %6, align 8, !tbaa !22
  %146 = getelementptr inbounds nuw %struct.CorrContext, ptr %145, i32 0, i32 17
  %147 = getelementptr inbounds [4 x i32], ptr %146, i64 0, i64 3
  store i32 %144, ptr %147, align 4, !tbaa !35
  %148 = load ptr, ptr %6, align 8, !tbaa !22
  %149 = getelementptr inbounds nuw %struct.CorrContext, ptr %148, i32 0, i32 17
  %150 = getelementptr inbounds [4 x i32], ptr %149, i64 0, i64 0
  store i32 %144, ptr %150, align 4, !tbaa !35
  %151 = load ptr, ptr %4, align 8, !tbaa !56
  %152 = getelementptr inbounds nuw %struct.AVPixFmtDescriptor, ptr %151, i32 0, i32 2
  %153 = load i8, ptr %152, align 1, !tbaa !66
  %154 = call i1 @llvm.is.constant.i8(i8 %153)
  br i1 %154, label %166, label %155

155:                                              ; preds = %134
  %156 = load ptr, ptr %3, align 8, !tbaa !47
  %157 = getelementptr inbounds nuw %struct.AVFilterLink, ptr %156, i32 0, i32 6
  %158 = load i32, ptr %157, align 8, !tbaa !63
  %159 = sub nsw i32 0, %158
  %160 = load ptr, ptr %4, align 8, !tbaa !56
  %161 = getelementptr inbounds nuw %struct.AVPixFmtDescriptor, ptr %160, i32 0, i32 2
  %162 = load i8, ptr %161, align 1, !tbaa !66
  %163 = zext i8 %162 to i32
  %164 = ashr i32 %159, %163
  %165 = sub nsw i32 0, %164
  br label %182

166:                                              ; preds = %134
  %167 = load ptr, ptr %3, align 8, !tbaa !47
  %168 = getelementptr inbounds nuw %struct.AVFilterLink, ptr %167, i32 0, i32 6
  %169 = load i32, ptr %168, align 8, !tbaa !63
  %170 = load ptr, ptr %4, align 8, !tbaa !56
  %171 = getelementptr inbounds nuw %struct.AVPixFmtDescriptor, ptr %170, i32 0, i32 2
  %172 = load i8, ptr %171, align 1, !tbaa !66
  %173 = zext i8 %172 to i32
  %174 = shl i32 1, %173
  %175 = add nsw i32 %169, %174
  %176 = sub nsw i32 %175, 1
  %177 = load ptr, ptr %4, align 8, !tbaa !56
  %178 = getelementptr inbounds nuw %struct.AVPixFmtDescriptor, ptr %177, i32 0, i32 2
  %179 = load i8, ptr %178, align 1, !tbaa !66
  %180 = zext i8 %179 to i32
  %181 = ashr i32 %176, %180
  br label %182

182:                                              ; preds = %166, %155
  %183 = phi i32 [ %165, %155 ], [ %181, %166 ]
  %184 = load ptr, ptr %6, align 8, !tbaa !22
  %185 = getelementptr inbounds nuw %struct.CorrContext, ptr %184, i32 0, i32 16
  %186 = getelementptr inbounds [4 x i32], ptr %185, i64 0, i64 2
  store i32 %183, ptr %186, align 4, !tbaa !35
  %187 = load ptr, ptr %6, align 8, !tbaa !22
  %188 = getelementptr inbounds nuw %struct.CorrContext, ptr %187, i32 0, i32 16
  %189 = getelementptr inbounds [4 x i32], ptr %188, i64 0, i64 1
  store i32 %183, ptr %189, align 4, !tbaa !35
  %190 = load ptr, ptr %3, align 8, !tbaa !47
  %191 = getelementptr inbounds nuw %struct.AVFilterLink, ptr %190, i32 0, i32 6
  %192 = load i32, ptr %191, align 8, !tbaa !63
  %193 = load ptr, ptr %6, align 8, !tbaa !22
  %194 = getelementptr inbounds nuw %struct.CorrContext, ptr %193, i32 0, i32 16
  %195 = getelementptr inbounds [4 x i32], ptr %194, i64 0, i64 3
  store i32 %192, ptr %195, align 4, !tbaa !35
  %196 = load ptr, ptr %6, align 8, !tbaa !22
  %197 = getelementptr inbounds nuw %struct.CorrContext, ptr %196, i32 0, i32 16
  %198 = getelementptr inbounds [4 x i32], ptr %197, i64 0, i64 0
  store i32 %192, ptr %198, align 4, !tbaa !35
  %199 = load ptr, ptr %6, align 8, !tbaa !22
  %200 = getelementptr inbounds nuw %struct.CorrContext, ptr %199, i32 0, i32 7
  %201 = load i32, ptr %200, align 8, !tbaa !59
  %202 = load ptr, ptr %6, align 8, !tbaa !22
  %203 = getelementptr inbounds nuw %struct.CorrContext, ptr %202, i32 0, i32 15
  %204 = load i32, ptr %203, align 8, !tbaa !36
  %205 = mul nsw i32 %201, %204
  %206 = sext i32 %205 to i64
  %207 = call noalias ptr @av_calloc(i64 noundef %206, i64 noundef 16)
  %208 = load ptr, ptr %6, align 8, !tbaa !22
  %209 = getelementptr inbounds nuw %struct.CorrContext, ptr %208, i32 0, i32 13
  store ptr %207, ptr %209, align 8, !tbaa !67
  %210 = load ptr, ptr %6, align 8, !tbaa !22
  %211 = getelementptr inbounds nuw %struct.CorrContext, ptr %210, i32 0, i32 7
  %212 = load i32, ptr %211, align 8, !tbaa !59
  %213 = load ptr, ptr %6, align 8, !tbaa !22
  %214 = getelementptr inbounds nuw %struct.CorrContext, ptr %213, i32 0, i32 15
  %215 = load i32, ptr %214, align 8, !tbaa !36
  %216 = mul nsw i32 %212, %215
  %217 = sext i32 %216 to i64
  %218 = call noalias ptr @av_calloc(i64 noundef %217, i64 noundef 12)
  %219 = load ptr, ptr %6, align 8, !tbaa !22
  %220 = getelementptr inbounds nuw %struct.CorrContext, ptr %219, i32 0, i32 14
  store ptr %218, ptr %220, align 8, !tbaa !68
  %221 = load ptr, ptr %6, align 8, !tbaa !22
  %222 = getelementptr inbounds nuw %struct.CorrContext, ptr %221, i32 0, i32 14
  %223 = load ptr, ptr %222, align 8, !tbaa !68
  %224 = icmp ne ptr %223, null
  br i1 %224, label %225, label %230

225:                                              ; preds = %182
  %226 = load ptr, ptr %6, align 8, !tbaa !22
  %227 = getelementptr inbounds nuw %struct.CorrContext, ptr %226, i32 0, i32 13
  %228 = load ptr, ptr %227, align 8, !tbaa !67
  %229 = icmp ne ptr %228, null
  br i1 %229, label %231, label %230

230:                                              ; preds = %225, %182
  store i32 -12, ptr %2, align 4
  store i32 1, ptr %7, align 4
  br label %294

231:                                              ; preds = %225
  %232 = load ptr, ptr %6, align 8, !tbaa !22
  %233 = getelementptr inbounds nuw %struct.CorrContext, ptr %232, i32 0, i32 3
  store double 0x7FF0000000000000, ptr %233, align 8, !tbaa !45
  %234 = load ptr, ptr %6, align 8, !tbaa !22
  %235 = getelementptr inbounds nuw %struct.CorrContext, ptr %234, i32 0, i32 4
  store double 0xFFF0000000000000, ptr %235, align 8, !tbaa !46
  %236 = load ptr, ptr %4, align 8, !tbaa !56
  %237 = getelementptr inbounds nuw %struct.AVPixFmtDescriptor, ptr %236, i32 0, i32 5
  %238 = getelementptr inbounds [4 x %struct.AVComponentDescriptor], ptr %237, i64 0, i64 0
  %239 = getelementptr inbounds nuw %struct.AVComponentDescriptor, ptr %238, i32 0, i32 4
  %240 = load i32, ptr %239, align 8, !tbaa !69
  %241 = shl i32 1, %240
  %242 = sub nsw i32 %241, 1
  %243 = load ptr, ptr %6, align 8, !tbaa !22
  %244 = getelementptr inbounds nuw %struct.CorrContext, ptr %243, i32 0, i32 10
  %245 = getelementptr inbounds [4 x i32], ptr %244, i64 0, i64 0
  store i32 %242, ptr %245, align 4, !tbaa !35
  %246 = load ptr, ptr %4, align 8, !tbaa !56
  %247 = getelementptr inbounds nuw %struct.AVPixFmtDescriptor, ptr %246, i32 0, i32 5
  %248 = getelementptr inbounds [4 x %struct.AVComponentDescriptor], ptr %247, i64 0, i64 1
  %249 = getelementptr inbounds nuw %struct.AVComponentDescriptor, ptr %248, i32 0, i32 4
  %250 = load i32, ptr %249, align 4, !tbaa !69
  %251 = shl i32 1, %250
  %252 = sub nsw i32 %251, 1
  %253 = load ptr, ptr %6, align 8, !tbaa !22
  %254 = getelementptr inbounds nuw %struct.CorrContext, ptr %253, i32 0, i32 10
  %255 = getelementptr inbounds [4 x i32], ptr %254, i64 0, i64 1
  store i32 %252, ptr %255, align 4, !tbaa !35
  %256 = load ptr, ptr %4, align 8, !tbaa !56
  %257 = getelementptr inbounds nuw %struct.AVPixFmtDescriptor, ptr %256, i32 0, i32 5
  %258 = getelementptr inbounds [4 x %struct.AVComponentDescriptor], ptr %257, i64 0, i64 2
  %259 = getelementptr inbounds nuw %struct.AVComponentDescriptor, ptr %258, i32 0, i32 4
  %260 = load i32, ptr %259, align 8, !tbaa !69
  %261 = shl i32 1, %260
  %262 = sub nsw i32 %261, 1
  %263 = load ptr, ptr %6, align 8, !tbaa !22
  %264 = getelementptr inbounds nuw %struct.CorrContext, ptr %263, i32 0, i32 10
  %265 = getelementptr inbounds [4 x i32], ptr %264, i64 0, i64 2
  store i32 %262, ptr %265, align 4, !tbaa !35
  %266 = load ptr, ptr %4, align 8, !tbaa !56
  %267 = getelementptr inbounds nuw %struct.AVPixFmtDescriptor, ptr %266, i32 0, i32 5
  %268 = getelementptr inbounds [4 x %struct.AVComponentDescriptor], ptr %267, i64 0, i64 3
  %269 = getelementptr inbounds nuw %struct.AVComponentDescriptor, ptr %268, i32 0, i32 4
  %270 = load i32, ptr %269, align 4, !tbaa !69
  %271 = shl i32 1, %270
  %272 = sub nsw i32 %271, 1
  %273 = load ptr, ptr %6, align 8, !tbaa !22
  %274 = getelementptr inbounds nuw %struct.CorrContext, ptr %273, i32 0, i32 10
  %275 = getelementptr inbounds [4 x i32], ptr %274, i64 0, i64 3
  store i32 %272, ptr %275, align 4, !tbaa !35
  %276 = load ptr, ptr %4, align 8, !tbaa !56
  %277 = getelementptr inbounds nuw %struct.AVPixFmtDescriptor, ptr %276, i32 0, i32 5
  %278 = getelementptr inbounds [4 x %struct.AVComponentDescriptor], ptr %277, i64 0, i64 0
  %279 = getelementptr inbounds nuw %struct.AVComponentDescriptor, ptr %278, i32 0, i32 4
  %280 = load i32, ptr %279, align 8, !tbaa !69
  %281 = icmp sgt i32 %280, 8
  %282 = select i1 %281, ptr @sum_slice16, ptr @sum_slice8
  %283 = load ptr, ptr %6, align 8, !tbaa !22
  %284 = getelementptr inbounds nuw %struct.CorrContext, ptr %283, i32 0, i32 18
  store ptr %282, ptr %284, align 8, !tbaa !71
  %285 = load ptr, ptr %4, align 8, !tbaa !56
  %286 = getelementptr inbounds nuw %struct.AVPixFmtDescriptor, ptr %285, i32 0, i32 5
  %287 = getelementptr inbounds [4 x %struct.AVComponentDescriptor], ptr %286, i64 0, i64 0
  %288 = getelementptr inbounds nuw %struct.AVComponentDescriptor, ptr %287, i32 0, i32 4
  %289 = load i32, ptr %288, align 8, !tbaa !69
  %290 = icmp sgt i32 %289, 8
  %291 = select i1 %290, ptr @corr_slice16, ptr @corr_slice8
  %292 = load ptr, ptr %6, align 8, !tbaa !22
  %293 = getelementptr inbounds nuw %struct.CorrContext, ptr %292, i32 0, i32 19
  store ptr %291, ptr %293, align 8, !tbaa !72
  store i32 0, ptr %2, align 4
  store i32 1, ptr %7, align 4
  br label %294

294:                                              ; preds = %231, %230, %59
  call void @llvm.lifetime.end.p0(i64 8, ptr %6) #11
  call void @llvm.lifetime.end.p0(i64 8, ptr %5) #11
  call void @llvm.lifetime.end.p0(i64 8, ptr %4) #11
  %295 = load i32, ptr %2, align 4
  ret i32 %295
}