; Function Attrs: nounwind uwtable
define internal range(i32 -22, 1) i32 @config_input_ref(ptr noundef readonly captures(none) %0) #0 {
  %2 = getelementptr inbounds nuw i8, ptr %0, i64 36
  %3 = load i32, ptr %2, align 4, !tbaa !43
  %4 = tail call ptr @av_pix_fmt_desc_get(i32 noundef %3) #11
  %5 = getelementptr inbounds nuw i8, ptr %0, i64 16
  %6 = load ptr, ptr %5, align 8, !tbaa !50
  %7 = getelementptr inbounds nuw i8, ptr %6, i64 72
  %8 = load ptr, ptr %7, align 8, !tbaa !4
  %9 = tail call i32 @ff_filter_get_nb_threads(ptr noundef %6) #12
  %10 = getelementptr inbounds nuw i8, ptr %8, i64 168
  store i32 %9, ptr %10, align 8, !tbaa !51
  %11 = getelementptr inbounds nuw i8, ptr %4, i64 8
  %12 = load i8, ptr %11, align 8, !tbaa !52
  %13 = zext i8 %12 to i32
  %14 = getelementptr inbounds nuw i8, ptr %8, i64 248
  store i32 %13, ptr %14, align 8, !tbaa !32
  %15 = getelementptr inbounds nuw i8, ptr %6, i64 32
  %16 = load ptr, ptr %15, align 8, !tbaa !54
  %17 = load ptr, ptr %16, align 8, !tbaa !55
  %18 = getelementptr inbounds nuw i8, ptr %17, i64 40
  %19 = load i32, ptr %18, align 8, !tbaa !57
  %20 = getelementptr inbounds nuw i8, ptr %16, i64 8
  %21 = load ptr, ptr %20, align 8, !tbaa !55
  %22 = getelementptr inbounds nuw i8, ptr %21, i64 40
  %23 = load i32, ptr %22, align 8, !tbaa !57
  %.not = icmp eq i32 %19, %23
  br i1 %.not, label %24, label %29

24:                                               ; preds = %1
  %25 = getelementptr inbounds nuw i8, ptr %17, i64 44
  %26 = load i32, ptr %25, align 4, !tbaa !58
  %27 = getelementptr inbounds nuw i8, ptr %21, i64 44
  %28 = load i32, ptr %27, align 4, !tbaa !58
  %.not66 = icmp eq i32 %26, %28
  br i1 %.not66, label %30, label %29

29:                                               ; preds = %24, %1
  tail call void (ptr, i32, ptr, ...) @av_log(ptr noundef nonnull %6, i32 noundef 16, ptr noundef nonnull @.str.4) #11
  br label %111

30:                                               ; preds = %24
  %31 = getelementptr inbounds nuw i8, ptr %8, i64 176
  %32 = load i32, ptr %2, align 4, !tbaa !43
  %33 = tail call i32 @ff_fill_rgba_map(ptr noundef nonnull %31, i32 noundef %32) #11
  %34 = icmp sgt i32 %33, -1
  %35 = zext i1 %34 to i32
  %36 = getelementptr inbounds nuw i8, ptr %8, i64 172
  store i32 %35, ptr %36, align 4, !tbaa !39
  %37 = select i1 %34, i8 82, i8 89
  %38 = getelementptr inbounds nuw i8, ptr %8, i64 196
  store i8 %37, ptr %38, align 4, !tbaa !31
  %39 = select i1 %34, i8 71, i8 85
  %40 = getelementptr inbounds nuw i8, ptr %8, i64 197
  store i8 %39, ptr %40, align 1, !tbaa !31
  %41 = select i1 %34, i8 66, i8 86
  %42 = getelementptr inbounds nuw i8, ptr %8, i64 198
  store i8 %41, ptr %42, align 2, !tbaa !31
  %43 = getelementptr inbounds nuw i8, ptr %8, i64 199
  store i8 65, ptr %43, align 1, !tbaa !31
  %44 = getelementptr inbounds nuw i8, ptr %0, i64 44
  %45 = load i32, ptr %44, align 4, !tbaa !58
  %46 = sub nsw i32 0, %45
  %47 = getelementptr inbounds nuw i8, ptr %4, i64 10
  %48 = load i8, ptr %47, align 2, !tbaa !59
  %49 = zext nneg i8 %48 to i32
  %50 = ashr i32 %46, %49
  %51 = sub nsw i32 0, %50
  %52 = getelementptr inbounds nuw i8, ptr %8, i64 268
  %53 = getelementptr inbounds nuw i8, ptr %8, i64 276
  store i32 %51, ptr %53, align 4, !tbaa !60
  %54 = getelementptr inbounds nuw i8, ptr %8, i64 272
  store i32 %51, ptr %54, align 4, !tbaa !60
  %55 = getelementptr inbounds nuw i8, ptr %0, i64 44
  %56 = load i32, ptr %55, align 4, !tbaa !58
  %57 = getelementptr inbounds nuw i8, ptr %8, i64 280
  store i32 %56, ptr %57, align 4, !tbaa !60
  store i32 %56, ptr %52, align 4, !tbaa !60
  %58 = getelementptr inbounds nuw i8, ptr %0, i64 40
  %59 = load i32, ptr %58, align 8, !tbaa !57
  %60 = sub nsw i32 0, %59
  %61 = getelementptr inbounds nuw i8, ptr %4, i64 9
  %62 = load i8, ptr %61, align 1, !tbaa !61
  %63 = zext nneg i8 %62 to i32
  %64 = ashr i32 %60, %63
  %65 = sub nsw i32 0, %64
  %66 = getelementptr inbounds nuw i8, ptr %8, i64 252
  %67 = getelementptr inbounds nuw i8, ptr %8, i64 260
  store i32 %65, ptr %67, align 4, !tbaa !60
  %68 = getelementptr inbounds nuw i8, ptr %8, i64 256
  store i32 %65, ptr %68, align 4, !tbaa !60
  %69 = getelementptr inbounds nuw i8, ptr %0, i64 40
  %70 = load i32, ptr %69, align 8, !tbaa !57
  %71 = getelementptr inbounds nuw i8, ptr %8, i64 264
  store i32 %70, ptr %71, align 4, !tbaa !60
  store i32 %70, ptr %66, align 4, !tbaa !60
  %72 = load i32, ptr %10, align 8, !tbaa !51
  %73 = load i32, ptr %14, align 8, !tbaa !32
  %74 = mul nsw i32 %73, %72
  %75 = sext i32 %74 to i64
  %76 = tail call noalias ptr @av_calloc(i64 noundef %75, i64 noundef 16) #11
  %77 = getelementptr inbounds nuw i8, ptr %8, i64 232
  store ptr %76, ptr %77, align 8, !tbaa !62
  %78 = load i32, ptr %10, align 8, !tbaa !51
  %79 = load i32, ptr %14, align 8, !tbaa !32
  %80 = mul nsw i32 %79, %78
  %81 = sext i32 %80 to i64
  %82 = tail call noalias ptr @av_calloc(i64 noundef %81, i64 noundef 12) #11
  %83 = getelementptr inbounds nuw i8, ptr %8, i64 240
  store ptr %82, ptr %83, align 8, !tbaa !63
  %.not68 = icmp eq ptr %82, null
  br i1 %.not68, label %111, label %84

84:                                               ; preds = %30
  %85 = load ptr, ptr %77, align 8, !tbaa !62
  %.not69 = icmp eq ptr %85, null
  br i1 %.not69, label %111, label %86

86:                                               ; preds = %84
  %87 = getelementptr inbounds nuw i8, ptr %8, i64 112
  store double 0x7FF0000000000000, ptr %87, align 8, !tbaa !37
  %88 = getelementptr inbounds nuw i8, ptr %8, i64 120
  store double 0xFFF0000000000000, ptr %88, align 8, !tbaa !38
  %89 = getelementptr inbounds nuw i8, ptr %4, i64 40
  %90 = load i32, ptr %89, align 8, !tbaa !64
  %notmask = shl nsw i32 -1, %90
  %91 = xor i32 %notmask, -1
  %92 = getelementptr inbounds nuw i8, ptr %8, i64 180
  store i32 %91, ptr %92, align 4, !tbaa !60
  %93 = getelementptr inbounds nuw i8, ptr %4, i64 60
  %94 = load i32, ptr %93, align 4, !tbaa !64
  %notmask70 = shl nsw i32 -1, %94
  %95 = xor i32 %notmask70, -1
  %96 = getelementptr inbounds nuw i8, ptr %8, i64 184
  store i32 %95, ptr %96, align 4, !tbaa !60
  %97 = getelementptr inbounds nuw i8, ptr %4, i64 80
  %98 = load i32, ptr %97, align 8, !tbaa !64
  %notmask71 = shl nsw i32 -1, %98
  %99 = xor i32 %notmask71, -1
  %100 = getelementptr inbounds nuw i8, ptr %8, i64 188
  store i32 %99, ptr %100, align 4, !tbaa !60
  %101 = getelementptr inbounds nuw i8, ptr %4, i64 100
  %102 = load i32, ptr %101, align 4, !tbaa !64
  %notmask72 = shl nsw i32 -1, %102
  %103 = xor i32 %notmask72, -1
  %104 = getelementptr inbounds nuw i8, ptr %8, i64 192
  store i32 %103, ptr %104, align 4, !tbaa !60
  %105 = load i32, ptr %89, align 8, !tbaa !64
  %106 = icmp sgt i32 %105, 8
  %107 = select i1 %106, ptr @sum_slice16, ptr @sum_slice8
  %108 = getelementptr inbounds nuw i8, ptr %8, i64 288
  store ptr %107, ptr %108, align 8, !tbaa !66
  %109 = select i1 %106, ptr @corr_slice16, ptr @corr_slice8
  %110 = getelementptr inbounds nuw i8, ptr %8, i64 296
  store ptr %109, ptr %110, align 8, !tbaa !67
  br label %111

111:                                              ; preds = %30, %84, %86, %29
  %.0 = phi i32 [ -22, %29 ], [ 0, %86 ], [ -12, %84 ], [ -12, %30 ]
  ret i32 %.0
}